target datalayout = "e-m:e-p270:32:32-p271:32:32-p272:64:64-i64:64-i128:128-f80:128-n8:16:32:64-S128"
target triple = "x86_64-pc-linux-gnu"

%"class.std::__cxx11::basic_string" = type { %"struct.std::__cxx11::basic_string<char>::_Alloc_hider", i64, %union.anon }
%"struct.std::__cxx11::basic_string<char>::_Alloc_hider" = type { ptr }
%union.anon = type { i64, [8 x i8] }
%"class.std::__shared_count" = type { ptr }
%"class.dropbox::oxygen::nn.69" = type { %"class.std::shared_ptr.70" }
%"class.std::shared_ptr.70" = type { %"class.std::__shared_ptr.71" }
%"class.std::__shared_ptr.71" = type { ptr, %"class.std::__shared_count" }
%"class.std::allocator.54" = type { i8 }

@.str.24 = private unnamed_addr constant [27 x i8] c"OPERATION_METHOD_EPSG_CODE\00", align 1
@_ZTIN5osgeo4proj4util10BaseObjectE = external constant ptr
@_ZTIN5osgeo4proj4util10BoxedValueE = external constant ptr

; Function Attrs: mustprogress nounwind uwtable
define linkonce_odr noundef ptr @_ZNKSt12__shared_ptrIN5osgeo4proj4util10BaseObjectELN9__gnu_cxx12_Lock_policyE2EE3getEv(ptr noundef nonnull align 8 dereferenceable(16) %0) #2 comdat align 2 {
  %2 = alloca ptr, align 8
  store ptr %0, ptr %2, align 8
  %3 = load ptr, ptr %2, align 8
  %4 = getelementptr inbounds %"class.std::__shared_ptr.71", ptr %3, i32 0, i32 0
  %5 = load ptr, ptr %4, align 8
  ret ptr %5
}

; Function Attrs: mustprogress nounwind uwtable
define linkonce_odr hidden noundef ptr @_ZNK7dropbox6oxygen2nnISt10shared_ptrIN5osgeo4proj4util10BaseObjectEEE3getIS7_EEPS6_v(ptr noundef nonnull align 8 dereferenceable(16) %0) #2 comdat align 2 {
  %2 = alloca ptr, align 8
  store ptr %0, ptr %2, align 8
  %3 = load ptr, ptr %2, align 8
  %4 = getelementptr inbounds %"class.dropbox::oxygen::nn.69", ptr %3, i32 0, i32 0
  %5 = call noundef ptr @_ZNKSt12__shared_ptrIN5osgeo4proj4util10BaseObjectELN9__gnu_cxx12_Lock_policyE2EE3getEv(ptr noundef nonnull align 8 dereferenceable(16) %4) #16
  ret ptr %5
}

; Function Attrs: mustprogress uwtable
define internal noundef i32 @_ZN5osgeo4proj9operationL35useOperationMethodEPSGCodeIfPresentERKNS0_4util11PropertyMapEi(ptr noundef nonnull align 8 dereferenceable(8) %0, i32 noundef %1) #0 personality ptr @__gxx_personality_v0 {
  %3 = alloca i32, align 4
  %4 = alloca ptr, align 8
  %5 = alloca i32, align 4
  %6 = alloca ptr, align 8
  %7 = alloca %"class.std::__cxx11::basic_string", align 8
  %8 = alloca %"class.std::allocator.54", align 1
  %9 = alloca ptr, align 8
  %10 = alloca i32, align 4
  %11 = alloca ptr, align 8
  store ptr %0, ptr %4, align 8
  store i32 %1, ptr %5, align 4
  %12 = load ptr, ptr %4, align 8
  call void @_ZNSaIcEC1Ev(ptr noundef nonnull align 1 dereferenceable(1) %8) #16
  invoke void @_ZNSt7__cxx1112basic_stringIcSt11char_traitsIcESaIcEEC1EPKcRKS3_(ptr noundef nonnull align 8 dereferenceable(32) %7, ptr noundef @.str.24, ptr noundef nonnull align 1 dereferenceable(1) %8)
          to label %13 unwind label %24

13:                                               ; preds = %2
  %14 = invoke noundef ptr @_ZNK5osgeo4proj4util11PropertyMap3getERKNSt7__cxx1112basic_stringIcSt11char_traitsIcESaIcEEE(ptr noundef nonnull align 8 dereferenceable(8) %12, ptr noundef nonnull align 8 dereferenceable(32) %7)
          to label %15 unwind label %28

15:                                               ; preds = %13
  call void @_ZNSt7__cxx1112basic_stringIcSt11char_traitsIcESaIcEED1Ev(ptr noundef nonnull align 8 dereferenceable(32) %7) #16
  call void @_ZNSaIcED1Ev(ptr noundef nonnull align 1 dereferenceable(1) %8) #16
  store ptr %14, ptr %6, align 8
  %16 = load ptr, ptr %6, align 8
  %17 = icmp ne ptr %16, null
  br i1 %17, label %18, label %47

18:                                               ; preds = %15
  %19 = load ptr, ptr %6, align 8
  %20 = call noundef ptr @_ZNK7dropbox6oxygen2nnISt10shared_ptrIN5osgeo4proj4util10BaseObjectEEE3getIS7_EEPS6_v(ptr noundef nonnull align 8 dereferenceable(16) %19)
  %21 = icmp eq ptr %20, null
  br i1 %21, label %33, label %22

22:                                               ; preds = %18
  %23 = call ptr @__dynamic_cast(ptr %20, ptr @_ZTIN5osgeo4proj4util10BaseObjectE, ptr @_ZTIN5osgeo4proj4util10BoxedValueE, i64 0) #16
  br label %34

24:                                               ; preds = %2
  %25 = landingpad { ptr, i32 }
          cleanup
  %26 = extractvalue { ptr, i32 } %25, 0
  store ptr %26, ptr %9, align 8
  %27 = extractvalue { ptr, i32 } %25, 1
  store i32 %27, ptr %10, align 4
  br label %32

28:                                               ; preds = %13
  %29 = landingpad { ptr, i32 }
          cleanup
  %30 = extractvalue { ptr, i32 } %29, 0
  store ptr %30, ptr %9, align 8
  %31 = extractvalue { ptr, i32 } %29, 1
  store i32 %31, ptr %10, align 4
  call void @_ZNSt7__cxx1112basic_stringIcSt11char_traitsIcESaIcEED1Ev(ptr noundef nonnull align 8 dereferenceable(32) %7) #16
  br label %32

32:                                               ; preds = %28, %24
  call void @_ZNSaIcED1Ev(ptr noundef nonnull align 1 dereferenceable(1) %8) #16
  br label %51

33:                                               ; preds = %18
  br label %34

34:                                               ; preds = %33, %22
  %35 = phi ptr [ %23, %22 ], [ null, %33 ]
  store ptr %35, ptr %11, align 8
  %36 = load ptr, ptr %11, align 8
  %37 = icmp ne ptr %36, null
  br i1 %37, label %38, label %46

38:                                               ; preds = %34
  %39 = load ptr, ptr %11, align 8
  %40 = call noundef nonnull align 4 dereferenceable(4) ptr @_ZNK5osgeo4proj4util10BoxedValue4typeEv(ptr noundef nonnull align 8 dereferenceable(24) %39)
  %41 = load i32, ptr %40, align 4
  %42 = icmp eq i32 %41, 1
  br i1 %42, label %43, label %46

43:                                               ; preds = %38
  %44 = load ptr, ptr %11, align 8
  %45 = call noundef i32 @_ZNK5osgeo4proj4util10BoxedValue12integerValueEv(ptr noundef nonnull align 8 dereferenceable(24) %44)
  store i32 %45, ptr %3, align 4
  br label %49

46:                                               ; preds = %38, %34
  br label %47

47:                                               ; preds = %46, %15
  %48 = load i32, ptr %5, align 4
  store i32 %48, ptr %3, align 4
  br label %49

49:                                               ; preds = %47, %43
  %50 = load i32, ptr %3, align 4
  ret i32 %50

51:                                               ; preds = %32
  %52 = load ptr, ptr %9, align 8
  %53 = load i32, ptr %10, align 4
  %54 = insertvalue { ptr, i32 } poison, ptr %52, 0
  %55 = insertvalue { ptr, i32 } %54, i32 %53, 1
  resume { ptr, i32 } %55
}