; Function Attrs: mustprogress uwtable
define internal fastcc noundef i32 @_ZN5osgeo4proj9operationL35useOperationMethodEPSGCodeIfPresentERKNS0_4util11PropertyMapEi(ptr noundef nonnull align 8 dereferenceable(8) %0, i32 noundef %1) unnamed_addr #0 personality ptr @__gxx_personality_v0 {
  %3 = alloca %"class.std::__cxx11::basic_string", align 8
  %4 = alloca %"class.std::allocator.54", align 1
  call void @_ZNSaIcEC1Ev(ptr noundef nonnull align 1 dereferenceable(1) %4) #21
  invoke void @_ZNSt7__cxx1112basic_stringIcSt11char_traitsIcESaIcEEC1EPKcRKS3_(ptr noundef nonnull align 8 dereferenceable(32) %3, ptr noundef nonnull @.str.24, ptr noundef nonnull align 1 dereferenceable(1) %4)
          to label %5 unwind label %11

5:                                                ; preds = %2
  %6 = invoke noundef ptr @_ZNK5osgeo4proj4util11PropertyMap3getERKNSt7__cxx1112basic_stringIcSt11char_traitsIcESaIcEEE(ptr noundef nonnull align 8 dereferenceable(8) %0, ptr noundef nonnull align 8 dereferenceable(32) %3)
          to label %7 unwind label %13

7:                                                ; preds = %5
  call void @_ZNSt7__cxx1112basic_stringIcSt11char_traitsIcESaIcEED1Ev(ptr noundef nonnull align 8 dereferenceable(32) %3) #21
  call void @_ZNSaIcED1Ev(ptr noundef nonnull align 1 dereferenceable(1) %4) #21
  %.not = icmp eq ptr %6, null
  br i1 %.not, label %.thread, label %8

8:                                                ; preds = %7
  %9 = load ptr, ptr %6, align 8
  %10 = icmp eq ptr %9, null
  br i1 %10, label %.thread, label %16

11:                                               ; preds = %2
  %12 = landingpad { ptr, i32 }
          cleanup
  br label %15

13:                                               ; preds = %5
  %14 = landingpad { ptr, i32 }
          cleanup
  call void @_ZNSt7__cxx1112basic_stringIcSt11char_traitsIcESaIcEED1Ev(ptr noundef nonnull align 8 dereferenceable(32) %3) #21
  br label %15

15:                                               ; preds = %13, %11
  %.pn = phi { ptr, i32 } [ %14, %13 ], [ %12, %11 ]
  call void @_ZNSaIcED1Ev(ptr noundef nonnull align 1 dereferenceable(1) %4) #21
  resume { ptr, i32 } %.pn

16:                                               ; preds = %8
  %17 = call ptr @__dynamic_cast(ptr nonnull %9, ptr nonnull @_ZTIN5osgeo4proj4util10BaseObjectE, ptr nonnull @_ZTIN5osgeo4proj4util10BoxedValueE, i64 0) #21
  %.not15 = icmp eq ptr %17, null
  br i1 %.not15, label %.thread, label %18

18:                                               ; preds = %16
  %19 = call noundef nonnull align 4 dereferenceable(4) ptr @_ZNK5osgeo4proj4util10BoxedValue4typeEv(ptr noundef nonnull align 8 dereferenceable(24) %17)
  %20 = load i32, ptr %19, align 4
  %21 = icmp eq i32 %20, 1
  br i1 %21, label %22, label %.thread

22:                                               ; preds = %18
  %23 = call noundef i32 @_ZNK5osgeo4proj4util10BoxedValue12integerValueEv(ptr noundef nonnull align 8 dereferenceable(24) %17)
  br label %.thread

.thread:                                          ; preds = %8, %7, %18, %16, %22
  %.0 = phi i32 [ %23, %22 ], [ %1, %16 ], [ %1, %18 ], [ %1, %7 ], [ %1, %8 ]
  ret i32 %.0
}